target datalayout = "e-m:e-p270:32:32-p271:32:32-p272:64:64-i64:64-i128:128-f80:128-n8:16:32:64-S128"
target triple = "x86_64-pc-linux-gnu"

%struct._value_string_ext = type { ptr, i32, i32, ptr, ptr }
%struct.expert_field = type { i32, i32 }
%struct._packet_info = type { ptr, ptr, i32, i32, %struct.nstime_t, %struct.nstime_t, %struct.nstime_t, i8, ptr, ptr, ptr, ptr, %struct._address, %struct._address, %struct._address, %struct._address, %struct._address, %struct._address, i32, ptr, i8, [3 x i8], %struct.anon, i32, i32, i32, i32, ptr, i8, ptr, ptr, i16, i16, i32, i32, i16, i32, i32, ptr, ptr, ptr, i8, i8, i16, i16, i16, i32, i16, i16, ptr, ptr, ptr, ptr, ptr, i32, i32 }
%struct.nstime_t = type { i64, i32 }
%struct._address = type { i32, i32, ptr, ptr }
%struct.anon = type { i8, [3 x i8] }

@E212_codes_ext = hidden global %struct._value_string_ext { ptr @_try_val_to_str_ext_init, i32 0, i32 799, ptr @E212_codes, ptr @.str }, align 8
@mcc_mnc_2digits_codes_ext = hidden global %struct._value_string_ext { ptr @_try_val_to_str_ext_init, i32 0, i32 1757, ptr @mcc_mnc_2digits_codes, ptr @.str.1 }, align 8
@mcc_mnc_3digits_codes_ext = hidden global %struct._value_string_ext { ptr @_try_val_to_str_ext_init, i32 0, i32 698, ptr @mcc_mnc_3digits_codes, ptr @.str.2 }, align 8
@hf_E212_mcc = internal global i32 0, align 4
@hf_E212_mnc = internal global i32 0, align 4
@.str.3 = private unnamed_addr constant [5 x i8] c"%03u\00", align 1
@.str.4 = private unnamed_addr constant [8 x i8] c"%s (%s)\00", align 1
@.str.5 = private unnamed_addr constant [8 x i8] c"Unknown\00", align 1
@ei_E212_mcc_non_decimal = internal global %struct.expert_field zeroinitializer, align 4
@.str.8 = private unnamed_addr constant [5 x i8] c"%02u\00", align 1
@ei_E212_mnc_non_decimal = internal global %struct.expert_field zeroinitializer, align 4

; Function Attrs: null_pointer_is_valid sspstrong uwtable
define i32 @dissect_e212_mcc_mnc_in_address(ptr noundef %0, ptr noundef %1, ptr noundef %2, i32 noundef %3) #1 {
  %5 = alloca i32, align 4
  %6 = alloca ptr, align 8
  %7 = alloca ptr, align 8
  %8 = alloca ptr, align 8
  %9 = alloca i32, align 4
  %10 = alloca i32, align 4
  %11 = alloca i32, align 4
  %12 = alloca i8, align 1
  %13 = alloca i16, align 2
  %14 = alloca i16, align 2
  %15 = alloca ptr, align 8
  %16 = alloca ptr, align 8
  %17 = alloca i8, align 1
  %18 = alloca i8, align 1
  %19 = alloca i8, align 1
  %20 = alloca i8, align 1
  %21 = alloca i8, align 1
  %22 = alloca i8, align 1
  %23 = alloca ptr, align 8
  %24 = alloca i8, align 1
  %25 = alloca i32, align 4
  store ptr %0, ptr %6, align 8
  store ptr %1, ptr %7, align 8
  store ptr %2, ptr %8, align 8
  store i32 %3, ptr %9, align 4
  call void @llvm.lifetime.start.p0(i64 4, ptr %10) #6
  call void @llvm.lifetime.start.p0(i64 4, ptr %11) #6
  call void @llvm.lifetime.start.p0(i64 1, ptr %12) #6
  call void @llvm.lifetime.start.p0(i64 2, ptr %13) #6
  call void @llvm.lifetime.start.p0(i64 2, ptr %14) #6
  call void @llvm.lifetime.start.p0(i64 8, ptr %15) #6
  call void @llvm.lifetime.start.p0(i64 8, ptr %16) #6
  call void @llvm.lifetime.start.p0(i64 1, ptr %17) #6
  call void @llvm.lifetime.start.p0(i64 1, ptr %18) #6
  call void @llvm.lifetime.start.p0(i64 1, ptr %19) #6
  call void @llvm.lifetime.start.p0(i64 1, ptr %20) #6
  call void @llvm.lifetime.start.p0(i64 1, ptr %21) #6
  call void @llvm.lifetime.start.p0(i64 1, ptr %22) #6
  call void @llvm.lifetime.start.p0(i64 8, ptr %23) #6
  call void @llvm.lifetime.start.p0(i64 1, ptr %24) #6
  store i8 0, ptr %24, align 1
  %26 = load i32, ptr %9, align 4
  store i32 %26, ptr %10, align 4
  %27 = load ptr, ptr %6, align 8
  %28 = load i32, ptr %9, align 4
  %29 = call i32 @tvb_get_ntoh24(ptr noundef %27, i32 noundef %28)
  store i32 %29, ptr %11, align 4
  %30 = load ptr, ptr %6, align 8
  %31 = load i32, ptr %9, align 4
  %32 = call zeroext i8 @tvb_get_uint8(ptr noundef %30, i32 noundef %31)
  store i8 %32, ptr %12, align 1
  %33 = load i8, ptr %12, align 1
  %34 = zext i8 %33 to i32
  %35 = and i32 %34, 15
  %36 = trunc i32 %35 to i8
  store i8 %36, ptr %17, align 1
  %37 = load i8, ptr %12, align 1
  %38 = zext i8 %37 to i32
  %39 = ashr i32 %38, 4
  %40 = trunc i32 %39 to i8
  store i8 %40, ptr %18, align 1
  %41 = load i32, ptr %9, align 4
  %42 = add i32 %41, 1
  store i32 %42, ptr %9, align 4
  %43 = load ptr, ptr %6, align 8
  %44 = load i32, ptr %9, align 4
  %45 = call zeroext i8 @tvb_get_uint8(ptr noundef %43, i32 noundef %44)
  store i8 %45, ptr %12, align 1
  %46 = load i8, ptr %12, align 1
  %47 = zext i8 %46 to i32
  %48 = and i32 %47, 15
  %49 = trunc i32 %48 to i8
  store i8 %49, ptr %19, align 1
  %50 = load i8, ptr %12, align 1
  %51 = zext i8 %50 to i32
  %52 = ashr i32 %51, 4
  %53 = trunc i32 %52 to i8
  store i8 %53, ptr %20, align 1
  %54 = load i32, ptr %9, align 4
  %55 = add i32 %54, 1
  store i32 %55, ptr %9, align 4
  %56 = load ptr, ptr %6, align 8
  %57 = load i32, ptr %9, align 4
  %58 = call zeroext i8 @tvb_get_uint8(ptr noundef %56, i32 noundef %57)
  store i8 %58, ptr %12, align 1
  %59 = load i8, ptr %12, align 1
  %60 = zext i8 %59 to i32
  %61 = and i32 %60, 15
  %62 = trunc i32 %61 to i8
  store i8 %62, ptr %21, align 1
  %63 = load i8, ptr %12, align 1
  %64 = zext i8 %63 to i32
  %65 = ashr i32 %64, 4
  %66 = trunc i32 %65 to i8
  store i8 %66, ptr %22, align 1
  %67 = load i8, ptr %17, align 1
  %68 = zext i8 %67 to i32
  %69 = mul i32 100, %68
  %70 = load i8, ptr %18, align 1
  %71 = zext i8 %70 to i32
  %72 = mul i32 10, %71
  %73 = add i32 %69, %72
  %74 = load i8, ptr %19, align 1
  %75 = zext i8 %74 to i32
  %76 = add i32 %73, %75
  %77 = trunc i32 %76 to i16
  store i16 %77, ptr %13, align 2
  %78 = load i8, ptr %20, align 1
  %79 = zext i8 %78 to i32
  %80 = mul i32 10, %79
  %81 = load i8, ptr %21, align 1
  %82 = zext i8 %81 to i32
  %83 = add i32 %80, %82
  %84 = trunc i32 %83 to i16
  store i16 %84, ptr %14, align 2
  %85 = load i16, ptr %13, align 2
  %86 = zext i16 %85 to i32
  %87 = mul i32 %86, 100
  %88 = load i16, ptr %14, align 2
  %89 = zext i16 %88 to i32
  %90 = add i32 %87, %89
  %91 = call ptr @try_val_to_str_ext(i32 noundef %90, ptr noundef @mcc_mnc_2digits_codes_ext)
  %92 = icmp ne ptr %91, null
  br i1 %92, label %105, label %93

93:                                               ; preds = %4
  %94 = load i8, ptr %22, align 1
  %95 = zext i8 %94 to i32
  %96 = icmp ne i32 %95, 15
  br i1 %96, label %97, label %105

97:                                               ; preds = %93
  %98 = load i16, ptr %14, align 2
  %99 = zext i16 %98 to i32
  %100 = mul i32 10, %99
  %101 = load i8, ptr %22, align 1
  %102 = zext i8 %101 to i32
  %103 = add i32 %100, %102
  %104 = trunc i32 %103 to i16
  store i16 %104, ptr %14, align 2
  store i8 1, ptr %24, align 1
  br label %105

105:                                              ; preds = %97, %93, %4
  %106 = load ptr, ptr %7, align 8
  %107 = getelementptr inbounds nuw %struct._packet_info, ptr %106, i32 0, i32 51
  %108 = load ptr, ptr %107, align 8
  %109 = load i16, ptr %13, align 2
  %110 = zext i16 %109 to i32
  %111 = call noalias ptr (ptr, ptr, ...) @wmem_strdup_printf(ptr noundef %108, ptr noundef @.str.3, i32 noundef %110)
  store ptr %111, ptr %15, align 8
  %112 = load ptr, ptr %8, align 8
  %113 = load i32, ptr @hf_E212_mcc, align 4
  %114 = load ptr, ptr %6, align 8
  %115 = load i32, ptr %10, align 4
  %116 = load ptr, ptr %15, align 8
  %117 = load i16, ptr %13, align 2
  %118 = zext i16 %117 to i32
  %119 = call ptr @val_to_str_ext_const(i32 noundef %118, ptr noundef @E212_codes_ext, ptr noundef @.str.5)
  %120 = load ptr, ptr %15, align 8
  %121 = call ptr (ptr, i32, ptr, i32, i32, ptr, ptr, ...) @proto_tree_add_string_format_value(ptr noundef %112, i32 noundef %113, ptr noundef %114, i32 noundef %115, i32 noundef 2, ptr noundef %116, ptr noundef @.str.4, ptr noundef %119, ptr noundef %120)
  store ptr %121, ptr %23, align 8
  %122 = load i8, ptr %17, align 1
  %123 = zext i8 %122 to i32
  %124 = icmp sgt i32 %123, 9
  br i1 %124, label %133, label %125

125:                                              ; preds = %105
  %126 = load i8, ptr %18, align 1
  %127 = zext i8 %126 to i32
  %128 = icmp sgt i32 %127, 9
  br i1 %128, label %133, label %129

129:                                              ; preds = %125
  %130 = load i8, ptr %19, align 1
  %131 = zext i8 %130 to i32
  %132 = icmp sgt i32 %131, 9
  br i1 %132, label %133, label %140

133:                                              ; preds = %129, %125, %105
  %134 = load i32, ptr %11, align 4
  %135 = icmp ne i32 %134, 16777215
  br i1 %135, label %136, label %140

136:                                              ; preds = %133
  %137 = load ptr, ptr %7, align 8
  %138 = load ptr, ptr %23, align 8
  %139 = call ptr @expert_add_info(ptr noundef %137, ptr noundef %138, ptr noundef @ei_E212_mcc_non_decimal)
  br label %140

140:                                              ; preds = %136, %133, %129
  %141 = load i8, ptr %24, align 1, !range !6, !noundef !7
  %142 = trunc i8 %141 to i1
  br i1 %142, label %143, label %165

143:                                              ; preds = %140
  %144 = load ptr, ptr %7, align 8
  %145 = getelementptr inbounds nuw %struct._packet_info, ptr %144, i32 0, i32 51
  %146 = load ptr, ptr %145, align 8
  %147 = load i16, ptr %14, align 2
  %148 = zext i16 %147 to i32
  %149 = call noalias ptr (ptr, ptr, ...) @wmem_strdup_printf(ptr noundef %146, ptr noundef @.str.3, i32 noundef %148)
  store ptr %149, ptr %16, align 8
  %150 = load ptr, ptr %8, align 8
  %151 = load i32, ptr @hf_E212_mnc, align 4
  %152 = load ptr, ptr %6, align 8
  %153 = load i32, ptr %10, align 4
  %154 = add i32 %153, 1
  %155 = load ptr, ptr %16, align 8
  %156 = load i16, ptr %13, align 2
  %157 = zext i16 %156 to i32
  %158 = mul i32 %157, 1000
  %159 = load i16, ptr %14, align 2
  %160 = zext i16 %159 to i32
  %161 = add i32 %158, %160
  %162 = call ptr @val_to_str_ext_const(i32 noundef %161, ptr noundef @mcc_mnc_3digits_codes_ext, ptr noundef @.str.5)
  %163 = load ptr, ptr %16, align 8
  %164 = call ptr (ptr, i32, ptr, i32, i32, ptr, ptr, ...) @proto_tree_add_string_format_value(ptr noundef %150, i32 noundef %151, ptr noundef %152, i32 noundef %154, i32 noundef 2, ptr noundef %155, ptr noundef @.str.4, ptr noundef %162, ptr noundef %163)
  store ptr %164, ptr %23, align 8
  br label %187

165:                                              ; preds = %140
  %166 = load ptr, ptr %7, align 8
  %167 = getelementptr inbounds nuw %struct._packet_info, ptr %166, i32 0, i32 51
  %168 = load ptr, ptr %167, align 8
  %169 = load i16, ptr %14, align 2
  %170 = zext i16 %169 to i32
  %171 = call noalias ptr (ptr, ptr, ...) @wmem_strdup_printf(ptr noundef %168, ptr noundef @.str.8, i32 noundef %170)
  store ptr %171, ptr %16, align 8
  %172 = load ptr, ptr %8, align 8
  %173 = load i32, ptr @hf_E212_mnc, align 4
  %174 = load ptr, ptr %6, align 8
  %175 = load i32, ptr %10, align 4
  %176 = add i32 %175, 1
  %177 = load ptr, ptr %16, align 8
  %178 = load i16, ptr %13, align 2
  %179 = zext i16 %178 to i32
  %180 = mul i32 %179, 100
  %181 = load i16, ptr %14, align 2
  %182 = zext i16 %181 to i32
  %183 = add i32 %180, %182
  %184 = call ptr @val_to_str_ext_const(i32 noundef %183, ptr noundef @mcc_mnc_2digits_codes_ext, ptr noundef @.str.5)
  %185 = load ptr, ptr %16, align 8
  %186 = call ptr (ptr, i32, ptr, i32, i32, ptr, ptr, ...) @proto_tree_add_string_format_value(ptr noundef %172, i32 noundef %173, ptr noundef %174, i32 noundef %176, i32 noundef 2, ptr noundef %177, ptr noundef @.str.4, ptr noundef %184, ptr noundef %185)
  store ptr %186, ptr %23, align 8
  br label %187

187:                                              ; preds = %165, %143
  %188 = load i8, ptr %20, align 1
  %189 = zext i8 %188 to i32
  %190 = icmp sgt i32 %189, 9
  br i1 %190, label %202, label %191

191:                                              ; preds = %187
  %192 = load i8, ptr %21, align 1
  %193 = zext i8 %192 to i32
  %194 = icmp sgt i32 %193, 9
  br i1 %194, label %202, label %195

195:                                              ; preds = %191
  %196 = load i8, ptr %24, align 1, !range !6, !noundef !7
  %197 = trunc i8 %196 to i1
  br i1 %197, label %198, label %209

198:                                              ; preds = %195
  %199 = load i8, ptr %22, align 1
  %200 = zext i8 %199 to i32
  %201 = icmp sgt i32 %200, 9
  br i1 %201, label %202, label %209

202:                                              ; preds = %198, %191, %187
  %203 = load i32, ptr %11, align 4
  %204 = icmp ne i32 %203, 16777215
  br i1 %204, label %205, label %209

205:                                              ; preds = %202
  %206 = load ptr, ptr %7, align 8
  %207 = load ptr, ptr %23, align 8
  %208 = call ptr @expert_add_info(ptr noundef %206, ptr noundef %207, ptr noundef @ei_E212_mnc_non_decimal)
  br label %209

209:                                              ; preds = %205, %202, %198, %195
  %210 = load i8, ptr %24, align 1, !range !6, !noundef !7
  %211 = trunc i8 %210 to i1
  br i1 %211, label %212, label %213

212:                                              ; preds = %209
  store i32 6, ptr %5, align 4
  store i32 1, ptr %25, align 4
  br label %214

213:                                              ; preds = %209
  store i32 5, ptr %5, align 4
  store i32 1, ptr %25, align 4
  br label %214

214:                                              ; preds = %213, %212
  call void @llvm.lifetime.end.p0(i64 1, ptr %24) #6
  call void @llvm.lifetime.end.p0(i64 8, ptr %23) #6
  call void @llvm.lifetime.end.p0(i64 1, ptr %22) #6
  call void @llvm.lifetime.end.p0(i64 1, ptr %21) #6
  call void @llvm.lifetime.end.p0(i64 1, ptr %20) #6
  call void @llvm.lifetime.end.p0(i64 1, ptr %19) #6
  call void @llvm.lifetime.end.p0(i64 1, ptr %18) #6
  call void @llvm.lifetime.end.p0(i64 1, ptr %17) #6
  call void @llvm.lifetime.end.p0(i64 8, ptr %16) #6
  call void @llvm.lifetime.end.p0(i64 8, ptr %15) #6
  call void @llvm.lifetime.end.p0(i64 2, ptr %14) #6
  call void @llvm.lifetime.end.p0(i64 2, ptr %13) #6
  call void @llvm.lifetime.end.p0(i64 1, ptr %12) #6
  call void @llvm.lifetime.end.p0(i64 4, ptr %11) #6
  call void @llvm.lifetime.end.p0(i64 4, ptr %10) #6
  %215 = load i32, ptr %5, align 4
  ret i32 %215
}