; Function Attrs: null_pointer_is_valid sspstrong uwtable
define range(i32 5, 7) i32 @dissect_e212_mcc_mnc_in_address(ptr noundef %0, ptr noundef %1, ptr noundef %2, i32 noundef %3) local_unnamed_addr #1 {
  %5 = tail call i32 @tvb_get_ntoh24(ptr noundef %0, i32 noundef %3)
  %6 = tail call zeroext i8 @tvb_get_uint8(ptr noundef %0, i32 noundef %3)
  %7 = and i8 %6, 15
  %8 = lshr i8 %6, 4
  %9 = add i32 %3, 1
  %10 = tail call zeroext i8 @tvb_get_uint8(ptr noundef %0, i32 noundef %9)
  %11 = and i8 %10, 15
  %12 = lshr i8 %10, 4
  %13 = add i32 %3, 2
  %14 = tail call zeroext i8 @tvb_get_uint8(ptr noundef %0, i32 noundef %13)
  %15 = and i8 %14, 15
  %16 = lshr i8 %14, 4
  %17 = zext nneg i8 %7 to i32
  %18 = mul nuw nsw i32 %17, 100
  %narrow = mul nuw i8 %8, 10
  %19 = zext i8 %narrow to i32
  %20 = add nuw nsw i32 %18, %19
  %21 = zext nneg i8 %11 to i32
  %22 = add nuw nsw i32 %20, %21
  %narrow91 = mul nuw i8 %12, 10
  %23 = zext i8 %narrow91 to i32
  %24 = zext nneg i8 %15 to i32
  %25 = add nuw nsw i32 %23, %24
  %26 = mul nuw nsw i32 %22, 100
  %27 = add nuw nsw i32 %26, %25
  %28 = tail call ptr @try_val_to_str_ext(i32 noundef %27, ptr noundef nonnull @mcc_mnc_2digits_codes_ext)
  %29 = icmp eq ptr %28, null
  %30 = icmp ne i8 %16, 15
  %or.cond = and i1 %29, %30
  %31 = zext nneg i8 %16 to i32
  %32 = mul nuw nsw i32 %25, 10
  %33 = add nuw nsw i32 %32, %31
  %34 = getelementptr inbounds nuw i8, ptr %1, i64 408
  %35 = load ptr, ptr %34, align 8
  %36 = tail call noalias ptr (ptr, ptr, ...) @wmem_strdup_printf(ptr noundef %35, ptr noundef nonnull @.str.3, i32 noundef %22)
  %37 = load i32, ptr @hf_E212_mcc, align 4
  %38 = tail call ptr @val_to_str_ext_const(i32 noundef %22, ptr noundef nonnull @E212_codes_ext, ptr noundef nonnull @.str.5)
  %39 = tail call ptr (ptr, i32, ptr, i32, i32, ptr, ptr, ...) @proto_tree_add_string_format_value(ptr noundef %2, i32 noundef %37, ptr noundef %0, i32 noundef %3, i32 noundef 2, ptr noundef %36, ptr noundef nonnull @.str.4, ptr noundef %38, ptr noundef %36)
  %40 = icmp samesign ugt i8 %7, 9
  %41 = icmp ugt i8 %6, -97
  %or.cond5 = or i1 %41, %40
  %42 = icmp samesign ugt i8 %11, 9
  %or.cond8 = select i1 %or.cond5, i1 true, i1 %42
  %43 = icmp ne i32 %5, 16777215
  %or.cond10 = select i1 %or.cond8, i1 %43, i1 false
  br i1 %or.cond10, label %44, label %46

44:                                               ; preds = %4
  %45 = tail call ptr @expert_add_info(ptr noundef %1, ptr noundef %39, ptr noundef nonnull @ei_E212_mcc_non_decimal)
  br label %46

46:                                               ; preds = %4, %44
  %47 = load ptr, ptr %34, align 8
  br i1 %or.cond, label %48, label %55

48:                                               ; preds = %46
  %49 = tail call noalias ptr (ptr, ptr, ...) @wmem_strdup_printf(ptr noundef %47, ptr noundef nonnull @.str.3, i32 noundef %33)
  %50 = load i32, ptr @hf_E212_mnc, align 4
  %51 = mul nuw nsw i32 %22, 1000
  %52 = add nuw nsw i32 %33, %51
  %53 = tail call ptr @val_to_str_ext_const(i32 noundef %52, ptr noundef nonnull @mcc_mnc_3digits_codes_ext, ptr noundef nonnull @.str.5)
  %54 = tail call ptr (ptr, i32, ptr, i32, i32, ptr, ptr, ...) @proto_tree_add_string_format_value(ptr noundef %2, i32 noundef %50, ptr noundef %0, i32 noundef %9, i32 noundef 2, ptr noundef %49, ptr noundef nonnull @.str.4, ptr noundef %53, ptr noundef %49)
  br label %60

55:                                               ; preds = %46
  %56 = tail call noalias ptr (ptr, ptr, ...) @wmem_strdup_printf(ptr noundef %47, ptr noundef nonnull @.str.8, i32 noundef %25)
  %57 = load i32, ptr @hf_E212_mnc, align 4
  %58 = tail call ptr @val_to_str_ext_const(i32 noundef %27, ptr noundef nonnull @mcc_mnc_2digits_codes_ext, ptr noundef nonnull @.str.5)
  %59 = tail call ptr (ptr, i32, ptr, i32, i32, ptr, ptr, ...) @proto_tree_add_string_format_value(ptr noundef %2, i32 noundef %57, ptr noundef %0, i32 noundef %9, i32 noundef 2, ptr noundef %56, ptr noundef nonnull @.str.4, ptr noundef %58, ptr noundef %56)
  br label %60

60:                                               ; preds = %55, %48
  %.087 = phi ptr [ %54, %48 ], [ %59, %55 ]
  %61 = icmp ugt i8 %10, -97
  %62 = icmp samesign ugt i8 %15, 9
  %or.cond13 = select i1 %61, i1 true, i1 %62
  br i1 %or.cond13, label %65, label %63

63:                                               ; preds = %60
  %64 = icmp ugt i8 %14, -97
  %or.cond16 = and i1 %64, %or.cond
  %or.cond18 = select i1 %or.cond16, i1 %43, i1 false
  br i1 %or.cond18, label %66, label %68

65:                                               ; preds = %60
  br i1 %43, label %66, label %68

66:                                               ; preds = %63, %65
  %67 = tail call ptr @expert_add_info(ptr noundef %1, ptr noundef %.087, ptr noundef nonnull @ei_E212_mnc_non_decimal)
  br label %68

68:                                               ; preds = %66, %65, %63
  %. = select i1 %or.cond, i32 6, i32 5
  ret i32 %.
}